target datalayout = "e-m:e-p270:32:32-p271:32:32-p272:64:64-i64:64-i128:128-f80:128-n8:16:32:64-S128"
target triple = "x86_64-unknown-linux-gnu"

%"class.std::__cxx11::basic_string" = type { %"struct.std::__cxx11::basic_string<char>::_Alloc_hider", i64, %union.anon }
%"struct.std::__cxx11::basic_string<char>::_Alloc_hider" = type { ptr }
%union.anon = type { i64, [8 x i8] }
%"class.rocksdb::Slice" = type { ptr, i64 }
%"class.rocksdb::UserComparatorWrapper" = type { ptr }
%"class.rocksdb::PartitionedIndexIterator" = type { %"class.rocksdb::InternalIteratorBase", %"class.std::unique_ptr", ptr, %"struct.rocksdb::ReadOptions", %"class.rocksdb::UserComparatorWrapper", %"class.rocksdb::IndexBlockIter", i8, i64, %"struct.rocksdb::BlockCacheLookupContext", %"class.rocksdb::BlockPrefetcher" }
%"class.rocksdb::InternalIteratorBase" = type { ptr, %"class.rocksdb::Cleanable" }
%"class.rocksdb::Cleanable" = type { %"struct.rocksdb::Cleanable::Cleanup" }
%"struct.rocksdb::Cleanable::Cleanup" = type { ptr, ptr, ptr, ptr }
%"class.std::unique_ptr" = type { %"struct.std::__uniq_ptr_data" }
%"struct.std::__uniq_ptr_data" = type { %"class.std::__uniq_ptr_impl" }
%"class.std::__uniq_ptr_impl" = type { %"class.std::tuple" }
%"class.std::tuple" = type { %"struct.std::_Tuple_impl" }
%"struct.std::_Tuple_impl" = type { %"struct.std::_Head_base.1" }
%"struct.std::_Head_base.1" = type { ptr }
%"struct.rocksdb::ReadOptions" = type <{ ptr, ptr, ptr, %"class.std::chrono::duration", %"class.std::chrono::duration", i32, i32, i64, %"class.std::optional", i8, i8, i8, i8, i8, [3 x i8], i64, i64, ptr, ptr, i8, i8, i8, i8, i8, i8, i8, i8, %"class.std::function", i8, i8, [6 x i8] }>
%"class.std::chrono::duration" = type { i64 }
%"class.std::optional" = type { %"struct.std::_Optional_base" }
%"struct.std::_Optional_base" = type { %"struct.std::_Optional_payload" }
%"struct.std::_Optional_payload" = type { %"struct.std::_Optional_payload_base.base", [7 x i8] }
%"struct.std::_Optional_payload_base.base" = type <{ %"union.std::_Optional_payload_base<unsigned long>::_Storage", i8 }>
%"union.std::_Optional_payload_base<unsigned long>::_Storage" = type { i64 }
%"class.std::function" = type { %"class.std::_Function_base", ptr }
%"class.std::_Function_base" = type { %"union.std::_Any_data", ptr }
%"union.std::_Any_data" = type { %"union.std::_Nocopy_types" }
%"union.std::_Nocopy_types" = type { { i64, i64 } }
%"class.rocksdb::IndexBlockIter" = type { %"class.rocksdb::BlockIter", i8, i8, ptr, %"struct.rocksdb::IndexValue", %"class.std::unique_ptr.18", %"class.std::__cxx11::basic_string" }
%"class.rocksdb::BlockIter" = type { %"class.rocksdb::InternalIteratorBase", %"class.std::unique_ptr.2", ptr, i32, i32, i32, i32, %"class.rocksdb::IterKey", %"class.rocksdb::IterKey", %"class.rocksdb::Slice", %"class.rocksdb::Status", %"class.rocksdb::Slice", i64, i64, i8, ptr, i32, i32, i8, i8, i8, ptr }
%"class.std::unique_ptr.2" = type { %"struct.std::__uniq_ptr_data.3" }
%"struct.std::__uniq_ptr_data.3" = type { %"class.std::__uniq_ptr_impl.4" }
%"class.std::__uniq_ptr_impl.4" = type { %"class.std::tuple.5" }
%"class.std::tuple.5" = type { %"struct.std::_Tuple_impl.6" }
%"struct.std::_Tuple_impl.6" = type { %"struct.std::_Head_base.9" }
%"struct.std::_Head_base.9" = type { ptr }
%"class.rocksdb::IterKey" = type { ptr, ptr, i64, i64, [39 x i8], i8 }
%"class.rocksdb::Status" = type { i8, i8, i8, i8, i8, i8, %"class.std::unique_ptr.10" }
%"class.std::unique_ptr.10" = type { %"struct.std::__uniq_ptr_data.11" }
%"struct.std::__uniq_ptr_data.11" = type { %"class.std::__uniq_ptr_impl.12" }
%"class.std::__uniq_ptr_impl.12" = type { %"class.std::tuple.13" }
%"class.std::tuple.13" = type { %"struct.std::_Tuple_impl.14" }
%"struct.std::_Tuple_impl.14" = type { %"struct.std::_Head_base.17" }
%"struct.std::_Head_base.17" = type { ptr }
%"struct.rocksdb::IndexValue" = type { %"class.rocksdb::BlockHandle", %"class.rocksdb::Slice" }
%"class.rocksdb::BlockHandle" = type { i64, i64 }
%"class.std::unique_ptr.18" = type { %"struct.std::__uniq_ptr_data.19" }
%"struct.std::__uniq_ptr_data.19" = type { %"class.std::__uniq_ptr_impl.20" }
%"class.std::__uniq_ptr_impl.20" = type { %"class.std::tuple.21" }
%"class.std::tuple.21" = type { %"struct.std::_Tuple_impl.22" }
%"struct.std::_Tuple_impl.22" = type { %"struct.std::_Head_base.25" }
%"struct.std::_Head_base.25" = type { ptr }
%"struct.rocksdb::BlockCacheLookupContext" = type <{ i8, i8, i8, i8, [4 x i8], i64, %"class.std::__cxx11::basic_string", i64, i64, %"class.std::__cxx11::basic_string", i8, [7 x i8] }>
%"class.rocksdb::BlockPrefetcher" = type { i64, i64, i64, i64, i64, i64, i64, %"class.std::unique_ptr.29" }
%"class.std::unique_ptr.29" = type { %"struct.std::__uniq_ptr_data.30" }
%"struct.std::__uniq_ptr_data.30" = type { %"class.std::__uniq_ptr_impl.31" }
%"class.std::__uniq_ptr_impl.31" = type { %"class.std::tuple.32" }
%"class.std::tuple.32" = type { %"struct.std::_Tuple_impl.33" }
%"struct.std::_Tuple_impl.33" = type { %"struct.std::_Head_base.36" }
%"struct.std::_Head_base.36" = type { ptr }

; Function Attrs: mustprogress nounwind uwtable
define linkonce_odr noundef zeroext i1 @_ZNK7rocksdb9BlockIterINS_10IndexValueEE5ValidEv(ptr noundef nonnull align 8 dereferenceable(320) %this) unnamed_addr #1 comdat align 2 {
entry:
  %this.addr = alloca ptr, align 8
  store ptr %this, ptr %this.addr, align 8
  %this1 = load ptr, ptr %this.addr, align 8
  %current_ = getelementptr inbounds %"class.rocksdb::BlockIter", ptr %this1, i32 0, i32 6
  %0 = load i32, ptr %current_, align 4
  %restarts_ = getelementptr inbounds %"class.rocksdb::BlockIter", ptr %this1, i32 0, i32 5
  %1 = load i32, ptr %restarts_, align 8
  %cmp = icmp ult i32 %0, %1
  ret i1 %cmp
}

; Function Attrs: mustprogress uwtable
define void @_ZN7rocksdb24PartitionedIndexIterator14FindKeyForwardEv(ptr noundef nonnull align 8 dereferenceable(816) %this) #0 align 2 {
entry:
  %this.addr = alloca ptr, align 8
  store ptr %this, ptr %this.addr, align 8
  %this1 = load ptr, ptr %this.addr, align 8
  %block_iter_ = getelementptr inbounds %"class.rocksdb::PartitionedIndexIterator", ptr %this1, i32 0, i32 5
  %call = call noundef zeroext i1 @_ZNK7rocksdb9BlockIterINS_10IndexValueEE5ValidEv(ptr noundef nonnull align 8 dereferenceable(320) %block_iter_)
  br i1 %call, label %if.else, label %if.then

if.then:                                          ; preds = %entry
  call void @_ZN7rocksdb24PartitionedIndexIterator16FindBlockForwardEv(ptr noundef nonnull align 8 dereferenceable(816) %this1)
  br label %if.end

if.else:                                          ; preds = %entry
  br label %if.end

if.end:                                           ; preds = %if.else, %if.then
  ret void
}

; Function Attrs: mustprogress uwtable
define linkonce_odr void @_ZN7rocksdb9BlockIterINS_10IndexValueEE4NextEv(ptr noundef nonnull align 8 dereferenceable(320) %this) unnamed_addr #0 comdat align 2 {
entry:
  %this.addr = alloca ptr, align 8
  store ptr %this, ptr %this.addr, align 8
  %this1 = load ptr, ptr %this.addr, align 8
  %vtable = load ptr, ptr %this1, align 8
  %vfn = getelementptr inbounds ptr, ptr %vtable, i64 30
  %0 = load ptr, ptr %vfn, align 8
  call void %0(ptr noundef nonnull align 8 dereferenceable(320) %this1)
  call void @_ZN7rocksdb9BlockIterINS_10IndexValueEE9UpdateKeyEv(ptr noundef nonnull align 8 dereferenceable(320) %this1)
  ret void
}

; Function Attrs: mustprogress uwtable
define void @_ZN7rocksdb24PartitionedIndexIterator4NextEv(ptr noundef nonnull align 8 dereferenceable(816) %this) unnamed_addr #0 align 2 {
entry:
  %this.addr = alloca ptr, align 8
  store ptr %this, ptr %this.addr, align 8
  %this1 = load ptr, ptr %this.addr, align 8
  %block_iter_ = getelementptr inbounds %"class.rocksdb::PartitionedIndexIterator", ptr %this1, i32 0, i32 5
  call void @_ZN7rocksdb9BlockIterINS_10IndexValueEE4NextEv(ptr noundef nonnull align 8 dereferenceable(320) %block_iter_)
  call void @_ZN7rocksdb24PartitionedIndexIterator14FindKeyForwardEv(ptr noundef nonnull align 8 dereferenceable(816) %this1)
  ret void
}