; Function Attrs: mustprogress uwtable
define void @_ZN7rocksdb24PartitionedIndexIterator4NextEv(ptr noundef nonnull align 8 dereferenceable(816) %this) unnamed_addr #2 align 2 {
entry:
  %block_iter_ = getelementptr inbounds i8, ptr %this, i64 224
  %vtable.i = load ptr, ptr %block_iter_, align 8
  %vfn.i = getelementptr inbounds i8, ptr %vtable.i, i64 240
  %0 = load ptr, ptr %vfn.i, align 8
  tail call void %0(ptr noundef nonnull align 8 dereferenceable(320) %block_iter_)
  tail call void @_ZN7rocksdb9BlockIterINS_10IndexValueEE9UpdateKeyEv(ptr noundef nonnull align 8 dereferenceable(320) %block_iter_)
  %current_.i.i = getelementptr inbounds i8, ptr %this, i64 292
  %1 = load i32, ptr %current_.i.i, align 4
  %restarts_.i.i = getelementptr inbounds i8, ptr %this, i64 288
  %2 = load i32, ptr %restarts_.i.i, align 8
  %cmp.i.i = icmp ult i32 %1, %2
  br i1 %cmp.i.i, label %_ZN7rocksdb24PartitionedIndexIterator14FindKeyForwardEv.exit, label %if.then.i

if.then.i:                                        ; preds = %entry
  tail call void @_ZN7rocksdb24PartitionedIndexIterator16FindBlockForwardEv(ptr noundef nonnull align 8 dereferenceable(816) %this)
  br label %_ZN7rocksdb24PartitionedIndexIterator14FindKeyForwardEv.exit

_ZN7rocksdb24PartitionedIndexIterator14FindKeyForwardEv.exit: ; preds = %entry, %if.then.i
  ret void
}